target datalayout = "e-m:e-p270:32:32-p271:32:32-p272:64:64-i64:64-i128:128-f80:128-n8:16:32:64-S128"
target triple = "x86_64-pc-linux-gnu"

%union._phpdbg_btree_branch = type { [2 x ptr] }

; Function Attrs: nounwind uwtable
define hidden void @phpdbg_btree_clean_recursive(ptr noundef %0, i64 noundef %1, i1 noundef zeroext %2) #0 {
  %4 = alloca ptr, align 8
  %5 = alloca i64, align 8
  %6 = alloca i8, align 1
  %7 = alloca ptr, align 8
  %8 = alloca i8, align 1
  store ptr %0, ptr %4, align 8
  store i64 %1, ptr %5, align 8
  %9 = zext i1 %2 to i8
  store i8 %9, ptr %6, align 1
  %10 = load ptr, ptr %4, align 8
  store ptr %10, ptr %7, align 8
  br label %11

11:                                               ; preds = %40, %3
  %12 = load i64, ptr %5, align 8
  %13 = add i64 %12, -1
  store i64 %13, ptr %5, align 8
  %14 = icmp ne i64 %12, 0
  br i1 %14, label %15, label %41

15:                                               ; preds = %11
  %16 = load ptr, ptr %4, align 8
  %17 = getelementptr inbounds %union._phpdbg_btree_branch, ptr %16, i64 1
  %18 = load ptr, ptr %4, align 8
  %19 = getelementptr inbounds [2 x ptr], ptr %18, i64 0, i64 0
  %20 = load ptr, ptr %19, align 8
  %21 = icmp eq ptr %17, %20
  %22 = zext i1 %21 to i8
  store i8 %22, ptr %8, align 1
  %23 = load ptr, ptr %4, align 8
  %24 = load i8, ptr %8, align 1
  %25 = trunc i8 %24 to i1
  %26 = zext i1 %25 to i64
  %27 = getelementptr inbounds [2 x ptr], ptr %23, i64 0, i64 %26
  %28 = load ptr, ptr %27, align 8
  %29 = icmp ne ptr %28, null
  br i1 %29, label %30, label %40

30:                                               ; preds = %15
  %31 = load ptr, ptr %4, align 8
  %32 = load i8, ptr %8, align 1
  %33 = trunc i8 %32 to i1
  %34 = zext i1 %33 to i64
  %35 = getelementptr inbounds [2 x ptr], ptr %31, i64 0, i64 %34
  %36 = load ptr, ptr %35, align 8
  %37 = load i64, ptr %5, align 8
  %38 = load i8, ptr %6, align 1
  %39 = trunc i8 %38 to i1
  call void @phpdbg_btree_clean_recursive(ptr noundef %36, i64 noundef %37, i1 noundef zeroext %39)
  br label %40

40:                                               ; preds = %30, %15
  br label %11

41:                                               ; preds = %11
  %42 = load i8, ptr %6, align 1
  %43 = trunc i8 %42 to i1
  br i1 %43, label %44, label %46

44:                                               ; preds = %41
  %45 = load ptr, ptr %7, align 8
  call void @free(ptr noundef %45) #7
  br label %48

46:                                               ; preds = %41
  %47 = load ptr, ptr %7, align 8
  call void @_efree(ptr noundef %47)
  br label %48

48:                                               ; preds = %46, %44
  ret void
}