; Function Attrs: nounwind uwtable
define hidden void @phpdbg_btree_clean_recursive(ptr noundef %0, i64 noundef %1, i1 noundef zeroext %2) local_unnamed_addr #3 {
  %.not14 = icmp eq i64 %1, 0
  br i1 %.not14, label %._crit_edge, label %.lr.ph

.lr.ph:                                           ; preds = %3
  %4 = getelementptr inbounds i8, ptr %0, i64 16
  br label %5

5:                                                ; preds = %.lr.ph, %13
  %.in = phi i64 [ %1, %.lr.ph ], [ %6, %13 ]
  %6 = add i64 %.in, -1
  %7 = load ptr, ptr %0, align 8
  %8 = icmp eq ptr %4, %7
  %9 = zext i1 %8 to i64
  %10 = getelementptr inbounds [2 x ptr], ptr %0, i64 0, i64 %9
  %11 = load ptr, ptr %10, align 8
  %.not13 = icmp eq ptr %11, null
  br i1 %.not13, label %13, label %12

12:                                               ; preds = %5
  tail call void @phpdbg_btree_clean_recursive(ptr noundef nonnull %11, i64 noundef %6, i1 noundef zeroext %2)
  br label %13

13:                                               ; preds = %12, %5
  %.not = icmp eq i64 %6, 0
  br i1 %.not, label %._crit_edge, label %5

._crit_edge:                                      ; preds = %13, %3
  br i1 %2, label %14, label %15

14:                                               ; preds = %._crit_edge
  tail call void @free(ptr noundef %0) #12
  br label %16

15:                                               ; preds = %._crit_edge
  tail call void @_efree(ptr noundef %0) #12
  br label %16

16:                                               ; preds = %15, %14
  ret void
}